target datalayout = "e-m:e-p270:32:32-p271:32:32-p272:64:64-i64:64-i128:128-f80:128-n8:16:32:64-S128"
target triple = "x86_64-pc-linux-gnu"

%"class.std::vector.3" = type { %"struct.std::_Vector_base.4" }
%"struct.std::_Vector_base.4" = type { %"struct.std::_Vector_base<int, std::allocator<int>>::_Vector_impl" }
%"struct.std::_Vector_base<int, std::allocator<int>>::_Vector_impl" = type { %"struct.std::_Vector_base<int, std::allocator<int>>::_Vector_impl_data" }
%"struct.std::_Vector_base<int, std::allocator<int>>::_Vector_impl_data" = type { ptr, ptr, ptr }
%struct.gmx_ana_index_t = type { i32, ptr, i32 }
%"struct.gmx::Range<int>::iterator" = type { i32 }
%"class.gmx::Range" = type { i32, i32 }
%"class.gmx::RangePartitioning" = type { %"class.std::vector.3" }
%class.anon.101 = type { i8 }

@.str.25 = private unnamed_addr constant [15 x i8] c"begin_ <= end_\00", align 1
@.str.26 = private unnamed_addr constant [31 x i8] c"A range should have begin<=end\00", align 1
@__PRETTY_FUNCTION__._ZZN3gmx5RangeIiEC1EiiENKUlvE_clEv = private unnamed_addr constant [99 x i8] c"auto gmx::Range<int>::Range(const int, const int)::(anonymous class)::operator()() const [T = int]\00", align 1
@.str.27 = private unnamed_addr constant [136 x i8] c"generated/home/dtcxzyw/WorkSpace/Projects/compilers/llvm-opt-benchmark/bench/gromacs/gromacs/api/legacy/include/gromacs/utility/range.h\00", align 1

; Function Attrs: inlinehint mustprogress uwtable
define linkonce_odr void @_ZZN3gmx5RangeIiEC1EiiENKUlvE_clEv(ptr noundef nonnull align 1 dereferenceable(1) %0) #5 comdat align 2 {
  %2 = alloca ptr, align 8
  store ptr %0, ptr %2, align 8, !tbaa !33
  call void @_ZN3gmx8internal13assertHandlerEPKcS2_S2_S2_i(ptr noundef @.str.25, ptr noundef @.str.26, ptr noundef @__PRETTY_FUNCTION__._ZZN3gmx5RangeIiEC1EiiENKUlvE_clEv, ptr noundef @.str.27, i32 noundef 111) #21
  unreachable
}

; Function Attrs: mustprogress nounwind uwtable
define linkonce_odr void @_ZN3gmx5RangeIiE8iteratorC2Ei(ptr noundef nonnull align 4 dereferenceable(4) %0, i32 noundef %1) unnamed_addr #1 comdat align 2 {
  %3 = alloca ptr, align 8
  %4 = alloca i32, align 4
  store ptr %0, ptr %3, align 8, !tbaa !467
  store i32 %1, ptr %4, align 4, !tbaa !114
  %5 = load ptr, ptr %3, align 8
  %6 = getelementptr inbounds nuw %"struct.gmx::Range<int>::iterator", ptr %5, i32 0, i32 0
  %7 = load i32, ptr %4, align 4, !tbaa !114
  store i32 %7, ptr %6, align 4, !tbaa !469
  ret void
}

; Function Attrs: mustprogress uwtable
define linkonce_odr void @_ZN3gmx5RangeIiEC2Eii(ptr noundef nonnull align 4 dereferenceable(8) %0, i32 noundef %1, i32 noundef %2) unnamed_addr #0 comdat align 2 {
  %4 = alloca ptr, align 8
  %5 = alloca i32, align 4
  %6 = alloca i32, align 4
  %7 = alloca %class.anon.101, align 1
  store ptr %0, ptr %4, align 8, !tbaa !463
  store i32 %1, ptr %5, align 4, !tbaa !114
  store i32 %2, ptr %6, align 4, !tbaa !114
  %8 = load ptr, ptr %4, align 8
  %9 = getelementptr inbounds nuw %"class.gmx::Range", ptr %8, i32 0, i32 0
  %10 = load i32, ptr %5, align 4, !tbaa !114
  store i32 %10, ptr %9, align 4, !tbaa !465
  %11 = getelementptr inbounds nuw %"class.gmx::Range", ptr %8, i32 0, i32 1
  %12 = load i32, ptr %6, align 4, !tbaa !114
  store i32 %12, ptr %11, align 4, !tbaa !471
  %13 = getelementptr inbounds nuw %"class.gmx::Range", ptr %8, i32 0, i32 0
  %14 = load i32, ptr %13, align 4, !tbaa !465
  %15 = getelementptr inbounds nuw %"class.gmx::Range", ptr %8, i32 0, i32 1
  %16 = load i32, ptr %15, align 4, !tbaa !471
  %17 = icmp sle i32 %14, %16
  call void @llvm.lifetime.start.p0(i64 1, ptr %7) #19
  br i1 %17, label %18, label %19

18:                                               ; preds = %3
  br label %20

19:                                               ; preds = %3
  call void @_ZZN3gmx5RangeIiEC1EiiENKUlvE_clEv(ptr noundef nonnull align 1 dereferenceable(1) %7)
  br label %20

20:                                               ; preds = %19, %18
  call void @llvm.lifetime.end.p0(i64 1, ptr %7) #19
  ret void
}

; Function Attrs: mustprogress nounwind uwtable
define linkonce_odr noundef nonnull align 4 dereferenceable(4) ptr @_ZNKSt6vectorIiSaIiEEixEm(ptr noundef nonnull align 8 dereferenceable(24) %0, i64 noundef %1) #1 comdat align 2 {
  %3 = alloca ptr, align 8
  %4 = alloca i64, align 8
  store ptr %0, ptr %3, align 8, !tbaa !44
  store i64 %1, ptr %4, align 8, !tbaa !19
  %5 = load ptr, ptr %3, align 8
  %6 = getelementptr inbounds nuw %"struct.std::_Vector_base.4", ptr %5, i32 0, i32 0
  %7 = getelementptr inbounds nuw %"struct.std::_Vector_base<int, std::allocator<int>>::_Vector_impl_data", ptr %6, i32 0, i32 0
  %8 = load ptr, ptr %7, align 8, !tbaa !46
  %9 = load i64, ptr %4, align 8, !tbaa !19
  %10 = getelementptr inbounds nuw i32, ptr %8, i64 %9
  ret ptr %10
}

; Function Attrs: mustprogress nounwind uwtable
define linkonce_odr noundef i64 @_ZNKSt6vectorIiSaIiEE4sizeEv(ptr noundef nonnull align 8 dereferenceable(24) %0) #1 comdat align 2 {
  %2 = alloca ptr, align 8
  store ptr %0, ptr %2, align 8, !tbaa !44
  %3 = load ptr, ptr %2, align 8
  %4 = getelementptr inbounds nuw %"struct.std::_Vector_base.4", ptr %3, i32 0, i32 0
  %5 = getelementptr inbounds nuw %"struct.std::_Vector_base<int, std::allocator<int>>::_Vector_impl_data", ptr %4, i32 0, i32 1
  %6 = load ptr, ptr %5, align 8, !tbaa !49
  %7 = getelementptr inbounds nuw %"struct.std::_Vector_base.4", ptr %3, i32 0, i32 0
  %8 = getelementptr inbounds nuw %"struct.std::_Vector_base<int, std::allocator<int>>::_Vector_impl_data", ptr %7, i32 0, i32 0
  %9 = load ptr, ptr %8, align 8, !tbaa !46
  %10 = ptrtoint ptr %6 to i64
  %11 = ptrtoint ptr %9 to i64
  %12 = sub i64 %10, %11
  %13 = sdiv exact i64 %12, 4
  ret i64 %13
}

; Function Attrs: mustprogress uwtable
define linkonce_odr i32 @_ZNK3gmx5RangeIiE3endEv(ptr noundef nonnull align 4 dereferenceable(8) %0) #0 comdat align 2 {
  %2 = alloca %"struct.gmx::Range<int>::iterator", align 4
  %3 = alloca ptr, align 8
  store ptr %0, ptr %3, align 8, !tbaa !463
  %4 = load ptr, ptr %3, align 8
  %5 = getelementptr inbounds nuw %"class.gmx::Range", ptr %4, i32 0, i32 1
  %6 = load i32, ptr %5, align 4, !tbaa !471
  call void @_ZN3gmx5RangeIiE8iteratorC2Ei(ptr noundef nonnull align 4 dereferenceable(4) %2, i32 noundef %6)
  %7 = getelementptr inbounds nuw %"struct.gmx::Range<int>::iterator", ptr %2, i32 0, i32 0
  %8 = load i32, ptr %7, align 4
  ret i32 %8
}

; Function Attrs: mustprogress nounwind uwtable
define linkonce_odr noundef i32 @_ZNK3gmx5RangeIiE4sizeEv(ptr noundef nonnull align 4 dereferenceable(8) %0) #1 comdat align 2 {
  %2 = alloca ptr, align 8
  store ptr %0, ptr %2, align 8, !tbaa !463
  %3 = load ptr, ptr %2, align 8
  %4 = getelementptr inbounds nuw %"class.gmx::Range", ptr %3, i32 0, i32 1
  %5 = load i32, ptr %4, align 4, !tbaa !471
  %6 = getelementptr inbounds nuw %"class.gmx::Range", ptr %3, i32 0, i32 0
  %7 = load i32, ptr %6, align 4, !tbaa !465
  %8 = sub nsw i32 %5, %7
  ret i32 %8
}

; Function Attrs: mustprogress nounwind uwtable
define linkonce_odr noundef i32 @_ZNK3gmx5RangeIiE8iteratordeEv(ptr noundef nonnull align 4 dereferenceable(4) %0) #1 comdat align 2 {
  %2 = alloca ptr, align 8
  store ptr %0, ptr %2, align 8, !tbaa !467
  %3 = load ptr, ptr %2, align 8
  %4 = getelementptr inbounds nuw %"struct.gmx::Range<int>::iterator", ptr %3, i32 0, i32 0
  %5 = load i32, ptr %4, align 4, !tbaa !469
  ret i32 %5
}

; Function Attrs: mustprogress uwtable
define linkonce_odr i32 @_ZNK3gmx5RangeIiE5beginEv(ptr noundef nonnull align 4 dereferenceable(8) %0) #0 comdat align 2 {
  %2 = alloca %"struct.gmx::Range<int>::iterator", align 4
  %3 = alloca ptr, align 8
  store ptr %0, ptr %3, align 8, !tbaa !463
  %4 = load ptr, ptr %3, align 8
  %5 = getelementptr inbounds nuw %"class.gmx::Range", ptr %4, i32 0, i32 0
  %6 = load i32, ptr %5, align 4, !tbaa !465
  call void @_ZN3gmx5RangeIiE8iteratorC2Ei(ptr noundef nonnull align 4 dereferenceable(4) %2, i32 noundef %6)
  %7 = getelementptr inbounds nuw %"struct.gmx::Range<int>::iterator", ptr %2, i32 0, i32 0
  %8 = load i32, ptr %7, align 4
  ret i32 %8
}

; Function Attrs: mustprogress uwtable
define linkonce_odr i64 @_ZNK3gmx17RangePartitioning5blockEi(ptr noundef nonnull align 8 dereferenceable(24) %0, i32 noundef %1) #0 comdat align 2 {
  %3 = alloca %"class.gmx::Range", align 4
  %4 = alloca ptr, align 8
  %5 = alloca i32, align 4
  store ptr %0, ptr %4, align 8, !tbaa !458
  store i32 %1, ptr %5, align 4, !tbaa !114
  %6 = load ptr, ptr %4, align 8
  %7 = getelementptr inbounds nuw %"class.gmx::RangePartitioning", ptr %6, i32 0, i32 0
  %8 = load i32, ptr %5, align 4, !tbaa !114
  %9 = sext i32 %8 to i64
  %10 = call noundef nonnull align 4 dereferenceable(4) ptr @_ZNKSt6vectorIiSaIiEEixEm(ptr noundef nonnull align 8 dereferenceable(24) %7, i64 noundef %9) #19
  %11 = load i32, ptr %10, align 4, !tbaa !114
  %12 = getelementptr inbounds nuw %"class.gmx::RangePartitioning", ptr %6, i32 0, i32 0
  %13 = load i32, ptr %5, align 4, !tbaa !114
  %14 = sext i32 %13 to i64
  %15 = add nsw i64 %14, 1
  %16 = call noundef nonnull align 4 dereferenceable(4) ptr @_ZNKSt6vectorIiSaIiEEixEm(ptr noundef nonnull align 8 dereferenceable(24) %12, i64 noundef %15) #19
  %17 = load i32, ptr %16, align 4, !tbaa !114
  call void @_ZN3gmx5RangeIiEC2Eii(ptr noundef nonnull align 4 dereferenceable(8) %3, i32 noundef %11, i32 noundef %17)
  %18 = load i64, ptr %3, align 4
  ret i64 %18
}

; Function Attrs: mustprogress nounwind uwtable
define linkonce_odr noundef i32 @_ZNK3gmx17RangePartitioning9numBlocksEv(ptr noundef nonnull align 8 dereferenceable(24) %0) #1 comdat align 2 {
  %2 = alloca ptr, align 8
  store ptr %0, ptr %2, align 8, !tbaa !458
  %3 = load ptr, ptr %2, align 8
  %4 = getelementptr inbounds nuw %"class.gmx::RangePartitioning", ptr %3, i32 0, i32 0
  %5 = call noundef i64 @_ZNKSt6vectorIiSaIiEE4sizeEv(ptr noundef nonnull align 8 dereferenceable(24) %4) #19
  %6 = trunc i64 %5 to i32
  %7 = sub nsw i32 %6, 1
  ret i32 %7
}

; Function Attrs: mustprogress uwtable
define noundef zeroext i1 @_Z29gmx_ana_index_has_full_blocksPK15gmx_ana_index_tPKN3gmx17RangePartitioningE(ptr noundef %0, ptr noundef %1) #0 {
  %3 = alloca i1, align 1
  %4 = alloca ptr, align 8
  %5 = alloca ptr, align 8
  %6 = alloca i32, align 4
  %7 = alloca i32, align 4
  %8 = alloca i32, align 4
  %9 = alloca %"struct.gmx::Range<int>::iterator", align 4
  %10 = alloca %"class.gmx::Range", align 4
  %11 = alloca %"class.gmx::Range", align 4
  %12 = alloca i32, align 4
  %13 = alloca %"struct.gmx::Range<int>::iterator", align 4
  %14 = alloca %"class.gmx::Range", align 4
  %15 = alloca %"struct.gmx::Range<int>::iterator", align 4
  %16 = alloca %"class.gmx::Range", align 4
  store ptr %0, ptr %4, align 8, !tbaa !232
  store ptr %1, ptr %5, align 8, !tbaa !458
  call void @llvm.lifetime.start.p0(i64 4, ptr %6) #19
  call void @llvm.lifetime.start.p0(i64 4, ptr %7) #19
  call void @llvm.lifetime.start.p0(i64 4, ptr %8) #19
  store i32 0, ptr %8, align 4, !tbaa !114
  store i32 0, ptr %6, align 4, !tbaa !114
  br label %17

17:                                               ; preds = %101, %2
  %18 = load i32, ptr %6, align 4, !tbaa !114
  %19 = load ptr, ptr %4, align 8, !tbaa !232
  %20 = getelementptr inbounds nuw %struct.gmx_ana_index_t, ptr %19, i32 0, i32 0
  %21 = load i32, ptr %20, align 8, !tbaa !234
  %22 = icmp slt i32 %18, %21
  br i1 %22, label %23, label %104

23:                                               ; preds = %17
  br label %24

24:                                               ; preds = %46, %23
  %25 = load i32, ptr %8, align 4, !tbaa !114
  %26 = load ptr, ptr %5, align 8, !tbaa !458
  %27 = call noundef i32 @_ZNK3gmx17RangePartitioning9numBlocksEv(ptr noundef nonnull align 8 dereferenceable(24) %26)
  %28 = icmp slt i32 %25, %27
  call void @llvm.lifetime.start.p0(i64 4, ptr %9) #19
  call void @llvm.lifetime.start.p0(i64 8, ptr %10) #19
  br i1 %28, label %29, label %44

29:                                               ; preds = %24
  %30 = load ptr, ptr %5, align 8, !tbaa !458
  %31 = load i32, ptr %8, align 4, !tbaa !114
  %32 = call i64 @_ZNK3gmx17RangePartitioning5blockEi(ptr noundef nonnull align 8 dereferenceable(24) %30, i32 noundef %31)
  store i64 %32, ptr %10, align 4
  %33 = call i32 @_ZNK3gmx5RangeIiE5beginEv(ptr noundef nonnull align 4 dereferenceable(8) %10)
  %34 = getelementptr inbounds nuw %"struct.gmx::Range<int>::iterator", ptr %9, i32 0, i32 0
  store i32 %33, ptr %34, align 4
  %35 = call noundef i32 @_ZNK3gmx5RangeIiE8iteratordeEv(ptr noundef nonnull align 4 dereferenceable(4) %9)
  %36 = load ptr, ptr %4, align 8, !tbaa !232
  %37 = getelementptr inbounds nuw %struct.gmx_ana_index_t, ptr %36, i32 0, i32 1
  %38 = load ptr, ptr %37, align 8, !tbaa !236
  %39 = load i32, ptr %6, align 4, !tbaa !114
  %40 = sext i32 %39 to i64
  %41 = getelementptr inbounds i32, ptr %38, i64 %40
  %42 = load i32, ptr %41, align 4, !tbaa !114
  %43 = icmp ne i32 %35, %42
  br label %44

44:                                               ; preds = %29, %24
  %45 = phi i1 [ false, %24 ], [ %43, %29 ]
  call void @llvm.lifetime.end.p0(i64 8, ptr %10) #19
  call void @llvm.lifetime.end.p0(i64 4, ptr %9) #19
  br i1 %45, label %46, label %49

46:                                               ; preds = %44
  %47 = load i32, ptr %8, align 4, !tbaa !114
  %48 = add nsw i32 %47, 1
  store i32 %48, ptr %8, align 4, !tbaa !114
  br label %24, !llvm.loop !460

49:                                               ; preds = %44
  %50 = load i32, ptr %8, align 4, !tbaa !114
  %51 = load ptr, ptr %5, align 8, !tbaa !458
  %52 = call noundef i32 @_ZNK3gmx17RangePartitioning9numBlocksEv(ptr noundef nonnull align 8 dereferenceable(24) %51)
  %53 = icmp eq i32 %50, %52
  call void @llvm.lifetime.start.p0(i64 8, ptr %11) #19
  br i1 %53, label %65, label %54

54:                                               ; preds = %49
  %55 = load i32, ptr %6, align 4, !tbaa !114
  %56 = load ptr, ptr %5, align 8, !tbaa !458
  %57 = load i32, ptr %8, align 4, !tbaa !114
  %58 = call i64 @_ZNK3gmx17RangePartitioning5blockEi(ptr noundef nonnull align 8 dereferenceable(24) %56, i32 noundef %57)
  store i64 %58, ptr %11, align 4
  %59 = call noundef i32 @_ZNK3gmx5RangeIiE4sizeEv(ptr noundef nonnull align 4 dereferenceable(8) %11)
  %60 = add nsw i32 %55, %59
  %61 = load ptr, ptr %4, align 8, !tbaa !232
  %62 = getelementptr inbounds nuw %struct.gmx_ana_index_t, ptr %61, i32 0, i32 0
  %63 = load i32, ptr %62, align 8, !tbaa !234
  %64 = icmp sgt i32 %60, %63
  br label %65

65:                                               ; preds = %54, %49
  %66 = phi i1 [ true, %49 ], [ %64, %54 ]
  call void @llvm.lifetime.end.p0(i64 8, ptr %11) #19
  br i1 %66, label %67, label %68

67:                                               ; preds = %65
  store i1 false, ptr %3, align 1
  store i32 1, ptr %12, align 4
  br label %105

68:                                               ; preds = %65
  call void @llvm.lifetime.start.p0(i64 4, ptr %13) #19
  call void @llvm.lifetime.start.p0(i64 8, ptr %14) #19
  %69 = load ptr, ptr %5, align 8, !tbaa !458
  %70 = load i32, ptr %8, align 4, !tbaa !114
  %71 = call i64 @_ZNK3gmx17RangePartitioning5blockEi(ptr noundef nonnull align 8 dereferenceable(24) %69, i32 noundef %70)
  store i64 %71, ptr %14, align 4
  %72 = call i32 @_ZNK3gmx5RangeIiE5beginEv(ptr noundef nonnull align 4 dereferenceable(8) %14)
  %73 = getelementptr inbounds nuw %"struct.gmx::Range<int>::iterator", ptr %13, i32 0, i32 0
  store i32 %72, ptr %73, align 4
  %74 = call noundef i32 @_ZNK3gmx5RangeIiE8iteratordeEv(ptr noundef nonnull align 4 dereferenceable(4) %13)
  store i32 %74, ptr %7, align 4, !tbaa !114
  call void @llvm.lifetime.end.p0(i64 8, ptr %14) #19
  call void @llvm.lifetime.end.p0(i64 4, ptr %13) #19
  br label %75

75:                                               ; preds = %96, %68
  %76 = load i32, ptr %7, align 4, !tbaa !114
  call void @llvm.lifetime.start.p0(i64 4, ptr %15) #19
  call void @llvm.lifetime.start.p0(i64 8, ptr %16) #19
  %77 = load ptr, ptr %5, align 8, !tbaa !458
  %78 = load i32, ptr %8, align 4, !tbaa !114
  %79 = call i64 @_ZNK3gmx17RangePartitioning5blockEi(ptr noundef nonnull align 8 dereferenceable(24) %77, i32 noundef %78)
  store i64 %79, ptr %16, align 4
  %80 = call i32 @_ZNK3gmx5RangeIiE3endEv(ptr noundef nonnull align 4 dereferenceable(8) %16)
  %81 = getelementptr inbounds nuw %"struct.gmx::Range<int>::iterator", ptr %15, i32 0, i32 0
  store i32 %80, ptr %81, align 4
  %82 = call noundef i32 @_ZNK3gmx5RangeIiE8iteratordeEv(ptr noundef nonnull align 4 dereferenceable(4) %15)
  %83 = icmp slt i32 %76, %82
  call void @llvm.lifetime.end.p0(i64 8, ptr %16) #19
  call void @llvm.lifetime.end.p0(i64 4, ptr %15) #19
  br i1 %83, label %84, label %101

84:                                               ; preds = %75
  %85 = load ptr, ptr %4, align 8, !tbaa !232
  %86 = getelementptr inbounds nuw %struct.gmx_ana_index_t, ptr %85, i32 0, i32 1
  %87 = load ptr, ptr %86, align 8, !tbaa !236
  %88 = load i32, ptr %6, align 4, !tbaa !114
  %89 = sext i32 %88 to i64
  %90 = getelementptr inbounds i32, ptr %87, i64 %89
  %91 = load i32, ptr %90, align 4, !tbaa !114
  %92 = load i32, ptr %7, align 4, !tbaa !114
  %93 = icmp ne i32 %91, %92
  br i1 %93, label %94, label %95

94:                                               ; preds = %84
  store i1 false, ptr %3, align 1
  store i32 1, ptr %12, align 4
  br label %105

95:                                               ; preds = %84
  br label %96

96:                                               ; preds = %95
  %97 = load i32, ptr %7, align 4, !tbaa !114
  %98 = add nsw i32 %97, 1
  store i32 %98, ptr %7, align 4, !tbaa !114
  %99 = load i32, ptr %6, align 4, !tbaa !114
  %100 = add nsw i32 %99, 1
  store i32 %100, ptr %6, align 4, !tbaa !114
  br label %75, !llvm.loop !461

101:                                              ; preds = %75
  %102 = load i32, ptr %8, align 4, !tbaa !114
  %103 = add nsw i32 %102, 1
  store i32 %103, ptr %8, align 4, !tbaa !114
  br label %17, !llvm.loop !462

104:                                              ; preds = %17
  store i1 true, ptr %3, align 1
  store i32 1, ptr %12, align 4
  br label %105

105:                                              ; preds = %104, %94, %67
  call void @llvm.lifetime.end.p0(i64 4, ptr %8) #19
  call void @llvm.lifetime.end.p0(i64 4, ptr %7) #19
  call void @llvm.lifetime.end.p0(i64 4, ptr %6) #19
  %106 = load i1, ptr %3, align 1
  ret i1 %106
}