; Function Attrs: mustprogress uwtable
define noundef zeroext i1 @_Z29gmx_ana_index_has_full_blocksPK15gmx_ana_index_tPKN3gmx17RangePartitioningE(ptr noundef readonly captures(none) %0, ptr noundef readonly captures(none) %1) local_unnamed_addr #0 {
  %3 = load i32, ptr %0, align 8, !tbaa !73
  %4 = icmp slt i32 %3, 1
  br i1 %4, label %.critedge2, label %.preheader.lr.ph

.preheader.lr.ph:                                 ; preds = %2
  %5 = getelementptr inbounds nuw i8, ptr %1, i64 8
  %6 = load ptr, ptr %5, align 8, !tbaa !28
  %7 = load ptr, ptr %1, align 8, !tbaa !14
  %8 = ptrtoint ptr %6 to i64
  %9 = ptrtoint ptr %7 to i64
  %10 = sub i64 %8, %9
  %11 = lshr exact i64 %10, 2
  %12 = trunc i64 %11 to i32
  %13 = add nsw i32 %12, -1
  %14 = getelementptr inbounds nuw i8, ptr %0, i64 8
  %15 = sext i32 %13 to i64
  br label %.preheader

.preheader:                                       ; preds = %.preheader.lr.ph, %_ZNK3gmx17RangePartitioning5blockEi.exit50._crit_edge
  %.079 = phi i32 [ 0, %.preheader.lr.ph ], [ %50, %_ZNK3gmx17RangePartitioning5blockEi.exit50._crit_edge ]
  %.02978 = phi i32 [ 0, %.preheader.lr.ph ], [ %.130.lcssa, %_ZNK3gmx17RangePartitioning5blockEi.exit50._crit_edge ]
  %16 = icmp slt i32 %.079, %13
  br i1 %16, label %.lr.ph, label %.critedge

.lr.ph:                                           ; preds = %.preheader
  %17 = sext i32 %.02978 to i64
  %18 = sext i32 %.079 to i64
  br label %19

19:                                               ; preds = %.lr.ph, %28
  %indvars.iv = phi i64 [ %18, %.lr.ph ], [ %indvars.iv.next, %28 ]
  %20 = getelementptr i32, ptr %7, i64 %indvars.iv
  %21 = load i32, ptr %20, align 4, !tbaa !36
  %22 = getelementptr i8, ptr %20, i64 4
  %23 = load i32, ptr %22, align 4, !tbaa !36
  %.not.i.i = icmp sgt i32 %21, %23
  br i1 %.not.i.i, label %24, label %_ZNK3gmx17RangePartitioning5blockEi.exit

24:                                               ; preds = %19
  tail call void @_ZN3gmx8internal13assertHandlerEPKcS2_S2_S2_i(ptr noundef nonnull @.str.25, ptr noundef nonnull @.str.26, ptr noundef nonnull @__PRETTY_FUNCTION__._ZZN3gmx5RangeIiEC1EiiENKUlvE_clEv, ptr noundef nonnull @.str.27, i32 noundef 111) #26
  unreachable

_ZNK3gmx17RangePartitioning5blockEi.exit:         ; preds = %19
  %25 = load ptr, ptr %14, align 8, !tbaa !108
  %26 = getelementptr inbounds i32, ptr %25, i64 %17
  %27 = load i32, ptr %26, align 4, !tbaa !36
  %.not = icmp eq i32 %21, %27
  br i1 %.not, label %.critedge.loopexit, label %28

28:                                               ; preds = %_ZNK3gmx17RangePartitioning5blockEi.exit
  %indvars.iv.next = add nsw i64 %indvars.iv, 1
  %29 = icmp slt i64 %indvars.iv.next, %15
  br i1 %29, label %19, label %.critedge2, !llvm.loop !241

.critedge.loopexit:                               ; preds = %_ZNK3gmx17RangePartitioning5blockEi.exit
  %30 = trunc nsw i64 %indvars.iv to i32
  br label %.critedge

.critedge:                                        ; preds = %.critedge.loopexit, %.preheader
  %.1.lcssa = phi i32 [ %.079, %.preheader ], [ %30, %.critedge.loopexit ]
  %31 = icmp eq i32 %.1.lcssa, %13
  br i1 %31, label %.critedge2, label %32

32:                                               ; preds = %.critedge
  %33 = sext i32 %.1.lcssa to i64
  %34 = getelementptr i32, ptr %7, i64 %33
  %35 = load i32, ptr %34, align 4, !tbaa !36
  %36 = getelementptr i8, ptr %34, i64 4
  %37 = load i32, ptr %36, align 4, !tbaa !36
  %.not.i.i33 = icmp sgt i32 %35, %37
  br i1 %.not.i.i33, label %38, label %_ZNK3gmx17RangePartitioning5blockEi.exit38

38:                                               ; preds = %32
  tail call void @_ZN3gmx8internal13assertHandlerEPKcS2_S2_S2_i(ptr noundef nonnull @.str.25, ptr noundef nonnull @.str.26, ptr noundef nonnull @__PRETTY_FUNCTION__._ZZN3gmx5RangeIiEC1EiiENKUlvE_clEv, ptr noundef nonnull @.str.27, i32 noundef 111) #26
  unreachable

_ZNK3gmx17RangePartitioning5blockEi.exit38:       ; preds = %32
  %39 = sub i32 %.02978, %35
  %40 = add i32 %39, %37
  %41 = icmp sgt i32 %40, %3
  br i1 %41, label %.critedge2, label %_ZNK3gmx17RangePartitioning5blockEi.exit50.preheader

_ZNK3gmx17RangePartitioning5blockEi.exit50.preheader: ; preds = %_ZNK3gmx17RangePartitioning5blockEi.exit38
  %42 = icmp slt i32 %35, %37
  br i1 %42, label %.lr.ph76, label %_ZNK3gmx17RangePartitioning5blockEi.exit50._crit_edge

.lr.ph76:                                         ; preds = %_ZNK3gmx17RangePartitioning5blockEi.exit50.preheader
  %43 = load ptr, ptr %14, align 8, !tbaa !108
  %44 = sext i32 %.02978 to i64
  br label %45

45:                                               ; preds = %.lr.ph76, %_ZNK3gmx17RangePartitioning5blockEi.exit50
  %indvars.iv86 = phi i64 [ %44, %.lr.ph76 ], [ %indvars.iv.next87, %_ZNK3gmx17RangePartitioning5blockEi.exit50 ]
  %.02875 = phi i32 [ %35, %.lr.ph76 ], [ %48, %_ZNK3gmx17RangePartitioning5blockEi.exit50 ]
  %46 = getelementptr inbounds i32, ptr %43, i64 %indvars.iv86
  %47 = load i32, ptr %46, align 4, !tbaa !36
  %.not32 = icmp eq i32 %47, %.02875
  br i1 %.not32, label %_ZNK3gmx17RangePartitioning5blockEi.exit50, label %.critedge2

_ZNK3gmx17RangePartitioning5blockEi.exit50:       ; preds = %45
  %48 = add i32 %.02875, 1
  %indvars.iv.next87 = add nsw i64 %indvars.iv86, 1
  %exitcond.not = icmp eq i32 %48, %37
  br i1 %exitcond.not, label %_ZNK3gmx17RangePartitioning5blockEi.exit50._crit_edge.loopexit, label %45, !llvm.loop !242

_ZNK3gmx17RangePartitioning5blockEi.exit50._crit_edge.loopexit: ; preds = %_ZNK3gmx17RangePartitioning5blockEi.exit50
  %49 = trunc nsw i64 %indvars.iv.next87 to i32
  br label %_ZNK3gmx17RangePartitioning5blockEi.exit50._crit_edge

_ZNK3gmx17RangePartitioning5blockEi.exit50._crit_edge: ; preds = %_ZNK3gmx17RangePartitioning5blockEi.exit50._crit_edge.loopexit, %_ZNK3gmx17RangePartitioning5blockEi.exit50.preheader
  %.130.lcssa = phi i32 [ %.02978, %_ZNK3gmx17RangePartitioning5blockEi.exit50.preheader ], [ %49, %_ZNK3gmx17RangePartitioning5blockEi.exit50._crit_edge.loopexit ]
  %50 = add nsw i32 %.1.lcssa, 1
  %.not83 = icmp slt i32 %.130.lcssa, %3
  br i1 %.not83, label %.preheader, label %.critedge2, !llvm.loop !243

.critedge2:                                       ; preds = %_ZNK3gmx17RangePartitioning5blockEi.exit38, %_ZNK3gmx17RangePartitioning5blockEi.exit50._crit_edge, %.critedge, %28, %45, %2
  %51 = phi i1 [ true, %2 ], [ false, %45 ], [ false, %28 ], [ false, %_ZNK3gmx17RangePartitioning5blockEi.exit38 ], [ true, %_ZNK3gmx17RangePartitioning5blockEi.exit50._crit_edge ], [ false, %.critedge ]
  ret i1 %51
}